target datalayout = "e-m:e-p270:32:32-p271:32:32-p272:64:64-i64:64-i128:128-f80:128-n8:16:32:64-S128"
target triple = "x86_64-unknown-linux-gnu"

%"class.(anonymous namespace)::Demangler" = type { ptr, i8, %"class.llvh::ms_demangle::ArenaAllocator", %"struct.(anonymous namespace)::BackrefContext" }
%"class.llvh::ms_demangle::ArenaAllocator" = type { ptr }
%"struct.(anonymous namespace)::BackrefContext" = type { [10 x ptr], i64, [10 x ptr], i64 }
%class.StringView = type { ptr, ptr }

@.str.40 = private unnamed_addr constant [3 x i8] c"?$\00", align 1

; Function Attrs: mustprogress nounwind uwtable
define linkonce_odr noundef i32 @_ZSt8__memcmpIccEiPKT_PKT0_m(ptr noundef %__first1, ptr noundef %__first2, i64 noundef %__num) #0 comdat {
entry:
  %__first1.addr = alloca ptr, align 8
  %__first2.addr = alloca ptr, align 8
  %__num.addr = alloca i64, align 8
  store ptr %__first1, ptr %__first1.addr, align 8
  store ptr %__first2, ptr %__first2.addr, align 8
  store i64 %__num, ptr %__num.addr, align 8
  %0 = load ptr, ptr %__first1.addr, align 8
  %1 = load ptr, ptr %__first2.addr, align 8
  %2 = load i64, ptr %__num.addr, align 8
  %mul = mul i64 1, %2
  %call = call i32 @memcmp(ptr noundef %0, ptr noundef %1, i64 noundef %mul) #13
  ret i32 %call
}

; Function Attrs: mustprogress nounwind uwtable
define linkonce_odr noundef zeroext i1 @_ZNSt7__equalILb1EE5equalIcEEbPKT_S4_S4_(ptr noundef %__first1, ptr noundef %__last1, ptr noundef %__first2) #0 comdat align 2 {
entry:
  %retval = alloca i1, align 1
  %__first1.addr = alloca ptr, align 8
  %__last1.addr = alloca ptr, align 8
  %__first2.addr = alloca ptr, align 8
  %__len = alloca i64, align 8
  store ptr %__first1, ptr %__first1.addr, align 8
  store ptr %__last1, ptr %__last1.addr, align 8
  store ptr %__first2, ptr %__first2.addr, align 8
  %0 = load ptr, ptr %__last1.addr, align 8
  %1 = load ptr, ptr %__first1.addr, align 8
  %sub.ptr.lhs.cast = ptrtoint ptr %0 to i64
  %sub.ptr.rhs.cast = ptrtoint ptr %1 to i64
  %sub.ptr.sub = sub i64 %sub.ptr.lhs.cast, %sub.ptr.rhs.cast
  store i64 %sub.ptr.sub, ptr %__len, align 8
  %2 = load i64, ptr %__len, align 8
  %tobool = icmp ne i64 %2, 0
  br i1 %tobool, label %if.then, label %if.end

if.then:                                          ; preds = %entry
  %3 = load ptr, ptr %__first1.addr, align 8
  %4 = load ptr, ptr %__first2.addr, align 8
  %5 = load i64, ptr %__len, align 8
  %call = call noundef i32 @_ZSt8__memcmpIccEiPKT_PKT0_m(ptr noundef %3, ptr noundef %4, i64 noundef %5)
  %tobool1 = icmp ne i32 %call, 0
  %lnot = xor i1 %tobool1, true
  store i1 %lnot, ptr %retval, align 1
  br label %return

if.end:                                           ; preds = %entry
  store i1 true, ptr %retval, align 1
  br label %return

return:                                           ; preds = %if.end, %if.then
  %6 = load i1, ptr %retval, align 1
  ret i1 %6
}

; Function Attrs: mustprogress nounwind uwtable
define linkonce_odr noundef zeroext i1 @_ZSt12__equal_aux1IPKcS1_EbT_S2_T0_(ptr noundef %__first1, ptr noundef %__last1, ptr noundef %__first2) #0 comdat {
entry:
  %__first1.addr = alloca ptr, align 8
  %__last1.addr = alloca ptr, align 8
  %__first2.addr = alloca ptr, align 8
  %__simple = alloca i8, align 1
  store ptr %__first1, ptr %__first1.addr, align 8
  store ptr %__last1, ptr %__last1.addr, align 8
  store ptr %__first2, ptr %__first2.addr, align 8
  store i8 1, ptr %__simple, align 1
  %0 = load ptr, ptr %__first1.addr, align 8
  %1 = load ptr, ptr %__last1.addr, align 8
  %2 = load ptr, ptr %__first2.addr, align 8
  %call = call noundef zeroext i1 @_ZNSt7__equalILb1EE5equalIcEEbPKT_S4_S4_(ptr noundef %0, ptr noundef %1, ptr noundef %2)
  ret i1 %call
}

; Function Attrs: mustprogress nounwind uwtable
define linkonce_odr noundef ptr @_ZSt12__niter_baseIPKcET_S2_(ptr noundef %__it) #0 comdat {
entry:
  %__it.addr = alloca ptr, align 8
  store ptr %__it, ptr %__it.addr, align 8
  %0 = load ptr, ptr %__it.addr, align 8
  ret ptr %0
}

; Function Attrs: mustprogress nounwind uwtable
define linkonce_odr noundef zeroext i1 @_ZSt11__equal_auxIPKcS1_EbT_S2_T0_(ptr noundef %__first1, ptr noundef %__last1, ptr noundef %__first2) #0 comdat {
entry:
  %__first1.addr = alloca ptr, align 8
  %__last1.addr = alloca ptr, align 8
  %__first2.addr = alloca ptr, align 8
  store ptr %__first1, ptr %__first1.addr, align 8
  store ptr %__last1, ptr %__last1.addr, align 8
  store ptr %__first2, ptr %__first2.addr, align 8
  %0 = load ptr, ptr %__first1.addr, align 8
  %call = call noundef ptr @_ZSt12__niter_baseIPKcET_S2_(ptr noundef %0) #13
  %1 = load ptr, ptr %__last1.addr, align 8
  %call1 = call noundef ptr @_ZSt12__niter_baseIPKcET_S2_(ptr noundef %1) #13
  %2 = load ptr, ptr %__first2.addr, align 8
  %call2 = call noundef ptr @_ZSt12__niter_baseIPKcET_S2_(ptr noundef %2) #13
  %call3 = call noundef zeroext i1 @_ZSt12__equal_aux1IPKcS1_EbT_S2_T0_(ptr noundef %call, ptr noundef %call1, ptr noundef %call2)
  ret i1 %call3
}

; Function Attrs: mustprogress nounwind uwtable
define linkonce_odr hidden void @_ZN10StringViewC2EPKcS1_(ptr noundef nonnull align 8 dereferenceable(16) %this, ptr noundef %First_, ptr noundef %Last_) unnamed_addr #0 comdat align 2 {
entry:
  %this.addr = alloca ptr, align 8
  %First_.addr = alloca ptr, align 8
  %Last_.addr = alloca ptr, align 8
  store ptr %this, ptr %this.addr, align 8
  store ptr %First_, ptr %First_.addr, align 8
  store ptr %Last_, ptr %Last_.addr, align 8
  %this1 = load ptr, ptr %this.addr, align 8
  %First = getelementptr inbounds %class.StringView, ptr %this1, i32 0, i32 0
  %0 = load ptr, ptr %First_.addr, align 8
  store ptr %0, ptr %First, align 8
  %Last = getelementptr inbounds %class.StringView, ptr %this1, i32 0, i32 1
  %1 = load ptr, ptr %Last_.addr, align 8
  store ptr %1, ptr %Last, align 8
  ret void
}

; Function Attrs: mustprogress nounwind uwtable
define linkonce_odr noundef zeroext i1 @_ZSt5equalIPKcS1_EbT_S2_T0_(ptr noundef %__first1, ptr noundef %__last1, ptr noundef %__first2) #0 comdat {
entry:
  %__first1.addr = alloca ptr, align 8
  %__last1.addr = alloca ptr, align 8
  %__first2.addr = alloca ptr, align 8
  store ptr %__first1, ptr %__first1.addr, align 8
  store ptr %__last1, ptr %__last1.addr, align 8
  store ptr %__first2, ptr %__first2.addr, align 8
  %0 = load ptr, ptr %__first1.addr, align 8
  %1 = load ptr, ptr %__last1.addr, align 8
  %2 = load ptr, ptr %__first2.addr, align 8
  %call = call noundef zeroext i1 @_ZSt11__equal_auxIPKcS1_EbT_S2_T0_(ptr noundef %0, ptr noundef %1, ptr noundef %2)
  ret i1 %call
}

; Function Attrs: mustprogress nounwind uwtable
define linkonce_odr hidden noundef ptr @_ZNK10StringView3endEv(ptr noundef nonnull align 8 dereferenceable(16) %this) #0 comdat align 2 {
entry:
  %this.addr = alloca ptr, align 8
  store ptr %this, ptr %this.addr, align 8
  %this1 = load ptr, ptr %this.addr, align 8
  %Last = getelementptr inbounds %class.StringView, ptr %this1, i32 0, i32 1
  %0 = load ptr, ptr %Last, align 8
  ret ptr %0
}

; Function Attrs: mustprogress nounwind uwtable
define linkonce_odr hidden noundef ptr @_ZNK10StringView5beginEv(ptr noundef nonnull align 8 dereferenceable(16) %this) #0 comdat align 2 {
entry:
  %this.addr = alloca ptr, align 8
  store ptr %this, ptr %this.addr, align 8
  %this1 = load ptr, ptr %this.addr, align 8
  %First = getelementptr inbounds %class.StringView, ptr %this1, i32 0, i32 0
  %0 = load ptr, ptr %First, align 8
  ret ptr %0
}

; Function Attrs: mustprogress nounwind uwtable
define linkonce_odr hidden noundef i64 @_ZNK10StringView4sizeEv(ptr noundef nonnull align 8 dereferenceable(16) %this) #0 comdat align 2 {
entry:
  %this.addr = alloca ptr, align 8
  store ptr %this, ptr %this.addr, align 8
  %this1 = load ptr, ptr %this.addr, align 8
  %Last = getelementptr inbounds %class.StringView, ptr %this1, i32 0, i32 1
  %0 = load ptr, ptr %Last, align 8
  %First = getelementptr inbounds %class.StringView, ptr %this1, i32 0, i32 0
  %1 = load ptr, ptr %First, align 8
  %sub.ptr.lhs.cast = ptrtoint ptr %0 to i64
  %sub.ptr.rhs.cast = ptrtoint ptr %1 to i64
  %sub.ptr.sub = sub i64 %sub.ptr.lhs.cast, %sub.ptr.rhs.cast
  ret i64 %sub.ptr.sub
}

; Function Attrs: mustprogress nounwind uwtable
define linkonce_odr hidden { ptr, ptr } @_ZNK10StringView9dropFrontEm(ptr noundef nonnull align 8 dereferenceable(16) %this, i64 noundef %N) #0 comdat align 2 {
entry:
  %retval = alloca %class.StringView, align 8
  %this.addr = alloca ptr, align 8
  %N.addr = alloca i64, align 8
  store ptr %this, ptr %this.addr, align 8
  store i64 %N, ptr %N.addr, align 8
  %this1 = load ptr, ptr %this.addr, align 8
  %0 = load i64, ptr %N.addr, align 8
  %call = call noundef i64 @_ZNK10StringView4sizeEv(ptr noundef nonnull align 8 dereferenceable(16) %this1)
  %cmp = icmp uge i64 %0, %call
  br i1 %cmp, label %if.then, label %if.end

if.then:                                          ; preds = %entry
  %call2 = call noundef i64 @_ZNK10StringView4sizeEv(ptr noundef nonnull align 8 dereferenceable(16) %this1)
  store i64 %call2, ptr %N.addr, align 8
  br label %if.end

if.end:                                           ; preds = %if.then, %entry
  %First = getelementptr inbounds %class.StringView, ptr %this1, i32 0, i32 0
  %1 = load ptr, ptr %First, align 8
  %2 = load i64, ptr %N.addr, align 8
  %add.ptr = getelementptr inbounds i8, ptr %1, i64 %2
  %Last = getelementptr inbounds %class.StringView, ptr %this1, i32 0, i32 1
  %3 = load ptr, ptr %Last, align 8
  call void @_ZN10StringViewC2EPKcS1_(ptr noundef nonnull align 8 dereferenceable(16) %retval, ptr noundef %add.ptr, ptr noundef %3)
  %4 = load { ptr, ptr }, ptr %retval, align 8
  ret { ptr, ptr } %4
}

; Function Attrs: mustprogress nounwind uwtable
define linkonce_odr hidden noundef nonnull align 1 dereferenceable(1) ptr @_ZNK10StringViewixEm(ptr noundef nonnull align 8 dereferenceable(16) %this, i64 noundef %Idx) #0 comdat align 2 {
entry:
  %this.addr = alloca ptr, align 8
  %Idx.addr = alloca i64, align 8
  store ptr %this, ptr %this.addr, align 8
  store i64 %Idx, ptr %Idx.addr, align 8
  %this1 = load ptr, ptr %this.addr, align 8
  %call = call noundef ptr @_ZNK10StringView5beginEv(ptr noundef nonnull align 8 dereferenceable(16) %this1)
  %0 = load i64, ptr %Idx.addr, align 8
  %add.ptr = getelementptr inbounds i8, ptr %call, i64 %0
  ret ptr %add.ptr
}

; Function Attrs: mustprogress nounwind uwtable
define linkonce_odr hidden noundef signext i8 @_ZNK10StringView5frontEv(ptr noundef nonnull align 8 dereferenceable(16) %this) #0 comdat align 2 {
entry:
  %this.addr = alloca ptr, align 8
  store ptr %this, ptr %this.addr, align 8
  %this1 = load ptr, ptr %this.addr, align 8
  %call = call noundef ptr @_ZNK10StringView5beginEv(ptr noundef nonnull align 8 dereferenceable(16) %this1)
  %0 = load i8, ptr %call, align 1
  ret i8 %0
}

; Function Attrs: mustprogress nounwind uwtable
define linkonce_odr hidden noundef zeroext i1 @_ZNK10StringView5emptyEv(ptr noundef nonnull align 8 dereferenceable(16) %this) #0 comdat align 2 {
entry:
  %this.addr = alloca ptr, align 8
  store ptr %this, ptr %this.addr, align 8
  %this1 = load ptr, ptr %this.addr, align 8
  %First = getelementptr inbounds %class.StringView, ptr %this1, i32 0, i32 0
  %0 = load ptr, ptr %First, align 8
  %Last = getelementptr inbounds %class.StringView, ptr %this1, i32 0, i32 1
  %1 = load ptr, ptr %Last, align 8
  %cmp = icmp eq ptr %0, %1
  ret i1 %cmp
}

; Function Attrs: mustprogress nounwind uwtable
define linkonce_odr hidden noundef zeroext i1 @_ZNK10StringView10startsWithES_(ptr noundef nonnull align 8 dereferenceable(16) %this, ptr %Str.coerce0, ptr %Str.coerce1) #0 comdat align 2 {
entry:
  %retval = alloca i1, align 1
  %Str = alloca %class.StringView, align 8
  %this.addr = alloca ptr, align 8
  %0 = getelementptr inbounds { ptr, ptr }, ptr %Str, i32 0, i32 0
  store ptr %Str.coerce0, ptr %0, align 8
  %1 = getelementptr inbounds { ptr, ptr }, ptr %Str, i32 0, i32 1
  store ptr %Str.coerce1, ptr %1, align 8
  store ptr %this, ptr %this.addr, align 8
  %this1 = load ptr, ptr %this.addr, align 8
  %call = call noundef i64 @_ZNK10StringView4sizeEv(ptr noundef nonnull align 8 dereferenceable(16) %Str)
  %call2 = call noundef i64 @_ZNK10StringView4sizeEv(ptr noundef nonnull align 8 dereferenceable(16) %this1)
  %cmp = icmp ugt i64 %call, %call2
  br i1 %cmp, label %if.then, label %if.end

if.then:                                          ; preds = %entry
  store i1 false, ptr %retval, align 1
  br label %return

if.end:                                           ; preds = %entry
  %call3 = call noundef ptr @_ZNK10StringView5beginEv(ptr noundef nonnull align 8 dereferenceable(16) %Str)
  %call4 = call noundef ptr @_ZNK10StringView3endEv(ptr noundef nonnull align 8 dereferenceable(16) %Str)
  %call5 = call noundef ptr @_ZNK10StringView5beginEv(ptr noundef nonnull align 8 dereferenceable(16) %this1)
  %call6 = call noundef zeroext i1 @_ZSt5equalIPKcS1_EbT_S2_T0_(ptr noundef %call3, ptr noundef %call4, ptr noundef %call5)
  store i1 %call6, ptr %retval, align 1
  br label %return

return:                                           ; preds = %if.end, %if.then
  %2 = load i1, ptr %retval, align 1
  ret i1 %2
}

; Function Attrs: mustprogress nounwind uwtable
define linkonce_odr hidden void @_ZN10StringViewC2EPKc(ptr noundef nonnull align 8 dereferenceable(16) %this, ptr noundef %Str) unnamed_addr #0 comdat align 2 {
entry:
  %this.addr = alloca ptr, align 8
  %Str.addr = alloca ptr, align 8
  store ptr %this, ptr %this.addr, align 8
  store ptr %Str, ptr %Str.addr, align 8
  %this1 = load ptr, ptr %this.addr, align 8
  %First = getelementptr inbounds %class.StringView, ptr %this1, i32 0, i32 0
  %0 = load ptr, ptr %Str.addr, align 8
  store ptr %0, ptr %First, align 8
  %Last = getelementptr inbounds %class.StringView, ptr %this1, i32 0, i32 1
  %1 = load ptr, ptr %Str.addr, align 8
  %2 = load ptr, ptr %Str.addr, align 8
  %call = call i64 @strlen(ptr noundef %2) #14
  %add.ptr = getelementptr inbounds i8, ptr %1, i64 %call
  store ptr %add.ptr, ptr %Last, align 8
  ret void
}

; Function Attrs: mustprogress nounwind uwtable
define internal noundef ptr @_ZN12_GLOBAL__N_19Demangler19demangleBackRefNameER10StringView(ptr noundef nonnull align 8 dereferenceable(200) %this, ptr noundef nonnull align 8 dereferenceable(16) %MangledName) #0 align 2 {
entry:
  %retval = alloca ptr, align 8
  %this.addr = alloca ptr, align 8
  %MangledName.addr = alloca ptr, align 8
  %I = alloca i64, align 8
  %ref.tmp = alloca %class.StringView, align 8
  store ptr %this, ptr %this.addr, align 8
  store ptr %MangledName, ptr %MangledName.addr, align 8
  %this1 = load ptr, ptr %this.addr, align 8
  %0 = load ptr, ptr %MangledName.addr, align 8
  %call = call noundef nonnull align 1 dereferenceable(1) ptr @_ZNK10StringViewixEm(ptr noundef nonnull align 8 dereferenceable(16) %0, i64 noundef 0)
  %1 = load i8, ptr %call, align 1
  %conv = sext i8 %1 to i32
  %sub = sub nsw i32 %conv, 48
  %conv2 = sext i32 %sub to i64
  store i64 %conv2, ptr %I, align 8
  %2 = load i64, ptr %I, align 8
  %Backrefs = getelementptr inbounds %"class.(anonymous namespace)::Demangler", ptr %this1, i32 0, i32 3
  %NamesCount = getelementptr inbounds %"struct.(anonymous namespace)::BackrefContext", ptr %Backrefs, i32 0, i32 3
  %3 = load i64, ptr %NamesCount, align 8
  %cmp = icmp uge i64 %2, %3
  br i1 %cmp, label %if.then, label %if.end

if.then:                                          ; preds = %entry
  %Error = getelementptr inbounds %"class.(anonymous namespace)::Demangler", ptr %this1, i32 0, i32 1
  store i8 1, ptr %Error, align 8
  store ptr null, ptr %retval, align 8
  br label %return

if.end:                                           ; preds = %entry
  %4 = load ptr, ptr %MangledName.addr, align 8
  %call3 = call { ptr, ptr } @_ZNK10StringView9dropFrontEm(ptr noundef nonnull align 8 dereferenceable(16) %4, i64 noundef 1)
  %5 = getelementptr inbounds { ptr, ptr }, ptr %ref.tmp, i32 0, i32 0
  %6 = extractvalue { ptr, ptr } %call3, 0
  store ptr %6, ptr %5, align 8
  %7 = getelementptr inbounds { ptr, ptr }, ptr %ref.tmp, i32 0, i32 1
  %8 = extractvalue { ptr, ptr } %call3, 1
  store ptr %8, ptr %7, align 8
  %9 = load ptr, ptr %MangledName.addr, align 8
  call void @llvm.memcpy.p0.p0.i64(ptr align 8 %9, ptr align 8 %ref.tmp, i64 16, i1 false)
  %Backrefs4 = getelementptr inbounds %"class.(anonymous namespace)::Demangler", ptr %this1, i32 0, i32 3
  %Names = getelementptr inbounds %"struct.(anonymous namespace)::BackrefContext", ptr %Backrefs4, i32 0, i32 2
  %10 = load i64, ptr %I, align 8
  %arrayidx = getelementptr inbounds [10 x ptr], ptr %Names, i64 0, i64 %10
  %11 = load ptr, ptr %arrayidx, align 8
  store ptr %11, ptr %retval, align 8
  br label %return

return:                                           ; preds = %if.end, %if.then
  %12 = load ptr, ptr %retval, align 8
  ret ptr %12
}

; Function Attrs: mustprogress nounwind uwtable
define internal noundef zeroext i1 @_ZL15startsWithDigit10StringView(ptr %S.coerce0, ptr %S.coerce1) #0 {
entry:
  %S = alloca %class.StringView, align 8
  %0 = getelementptr inbounds { ptr, ptr }, ptr %S, i32 0, i32 0
  store ptr %S.coerce0, ptr %0, align 8
  %1 = getelementptr inbounds { ptr, ptr }, ptr %S, i32 0, i32 1
  store ptr %S.coerce1, ptr %1, align 8
  %call = call noundef zeroext i1 @_ZNK10StringView5emptyEv(ptr noundef nonnull align 8 dereferenceable(16) %S)
  br i1 %call, label %land.end, label %land.rhs

land.rhs:                                         ; preds = %entry
  %call1 = call noundef signext i8 @_ZNK10StringView5frontEv(ptr noundef nonnull align 8 dereferenceable(16) %S)
  %conv = sext i8 %call1 to i32
  %call2 = call i32 @isdigit(i32 noundef %conv) #14
  %tobool = icmp ne i32 %call2, 0
  br label %land.end

land.end:                                         ; preds = %land.rhs, %entry
  %2 = phi i1 [ false, %entry ], [ %tobool, %land.rhs ]
  ret i1 %2
}

; Function Attrs: mustprogress nounwind uwtable
define internal noundef ptr @_ZN12_GLOBAL__N_19Demangler27demangleUnqualifiedTypeNameER10StringViewb(ptr noundef nonnull align 8 dereferenceable(200) %this, ptr noundef nonnull align 8 dereferenceable(16) %MangledName, i1 noundef zeroext %Memorize) #0 align 2 {
entry:
  %retval = alloca ptr, align 8
  %this.addr = alloca ptr, align 8
  %MangledName.addr = alloca ptr, align 8
  %Memorize.addr = alloca i8, align 1
  %agg.tmp = alloca %class.StringView, align 8
  %agg.tmp3 = alloca %class.StringView, align 8
  store ptr %this, ptr %this.addr, align 8
  store ptr %MangledName, ptr %MangledName.addr, align 8
  %frombool = zext i1 %Memorize to i8
  store i8 %frombool, ptr %Memorize.addr, align 1
  %this1 = load ptr, ptr %this.addr, align 8
  %0 = load ptr, ptr %MangledName.addr, align 8
  call void @llvm.memcpy.p0.p0.i64(ptr align 8 %agg.tmp, ptr align 8 %0, i64 16, i1 false)
  %1 = getelementptr inbounds { ptr, ptr }, ptr %agg.tmp, i32 0, i32 0
  %2 = load ptr, ptr %1, align 8
  %3 = getelementptr inbounds { ptr, ptr }, ptr %agg.tmp, i32 0, i32 1
  %4 = load ptr, ptr %3, align 8
  %call = call noundef zeroext i1 @_ZL15startsWithDigit10StringView(ptr %2, ptr %4)
  br i1 %call, label %if.then, label %if.end

if.then:                                          ; preds = %entry
  %5 = load ptr, ptr %MangledName.addr, align 8
  %call2 = call noundef ptr @_ZN12_GLOBAL__N_19Demangler19demangleBackRefNameER10StringView(ptr noundef nonnull align 8 dereferenceable(200) %this1, ptr noundef nonnull align 8 dereferenceable(16) %5)
  store ptr %call2, ptr %retval, align 8
  br label %return

if.end:                                           ; preds = %entry
  %6 = load ptr, ptr %MangledName.addr, align 8
  call void @_ZN10StringViewC2EPKc(ptr noundef nonnull align 8 dereferenceable(16) %agg.tmp3, ptr noundef @.str.40)
  %7 = getelementptr inbounds { ptr, ptr }, ptr %agg.tmp3, i32 0, i32 0
  %8 = load ptr, ptr %7, align 8
  %9 = getelementptr inbounds { ptr, ptr }, ptr %agg.tmp3, i32 0, i32 1
  %10 = load ptr, ptr %9, align 8
  %call4 = call noundef zeroext i1 @_ZNK10StringView10startsWithES_(ptr noundef nonnull align 8 dereferenceable(16) %6, ptr %8, ptr %10)
  br i1 %call4, label %if.then5, label %if.end7

if.then5:                                         ; preds = %if.end
  %11 = load ptr, ptr %MangledName.addr, align 8
  %call6 = call noundef ptr @_ZN12_GLOBAL__N_19Demangler33demangleTemplateInstantiationNameER10StringView19NameBackrefBehavior(ptr noundef nonnull align 8 dereferenceable(200) %this1, ptr noundef nonnull align 8 dereferenceable(16) %11, i8 noundef zeroext 1)
  store ptr %call6, ptr %retval, align 8
  br label %return

if.end7:                                          ; preds = %if.end
  %12 = load ptr, ptr %MangledName.addr, align 8
  %13 = load i8, ptr %Memorize.addr, align 1
  %tobool = trunc i8 %13 to i1
  %call8 = call noundef ptr @_ZN12_GLOBAL__N_19Demangler18demangleSimpleNameER10StringViewb(ptr noundef nonnull align 8 dereferenceable(200) %this1, ptr noundef nonnull align 8 dereferenceable(16) %12, i1 noundef zeroext %tobool)
  store ptr %call8, ptr %retval, align 8
  br label %return

return:                                           ; preds = %if.end7, %if.then5, %if.then
  %14 = load ptr, ptr %retval, align 8
  ret ptr %14
}