; Function Attrs: mustprogress nounwind uwtable
define internal fastcc noundef ptr @_ZN12_GLOBAL__N_19Demangler27demangleUnqualifiedTypeNameER10StringViewb(ptr noundef nonnull align 8 dereferenceable(200) %this, ptr nocapture noundef nonnull align 8 dereferenceable(16) %MangledName) unnamed_addr #2 align 2 {
entry:
  %agg.tmp.sroa.0.0.copyload = load ptr, ptr %MangledName, align 8
  %agg.tmp.sroa.2.0..sroa_idx = getelementptr inbounds i8, ptr %MangledName, i64 8
  %agg.tmp.sroa.2.0.copyload = load ptr, ptr %agg.tmp.sroa.2.0..sroa_idx, align 8
  %cmp.i.i = icmp eq ptr %agg.tmp.sroa.0.0.copyload, %agg.tmp.sroa.2.0.copyload
  br i1 %cmp.i.i, label %if.end, label %_ZL15startsWithDigit10StringView.exit

_ZL15startsWithDigit10StringView.exit:            ; preds = %entry
  %0 = load i8, ptr %agg.tmp.sroa.0.0.copyload, align 1
  %conv.i = sext i8 %0 to i32
  %isdigittmp.i = add nsw i32 %conv.i, -48
  %isdigit.i = icmp ult i32 %isdigittmp.i, 10
  br i1 %isdigit.i, label %if.then, label %if.end

if.then:                                          ; preds = %_ZL15startsWithDigit10StringView.exit
  %conv.i5 = sext i8 %0 to i64
  %sub.i = add nsw i64 %conv.i5, -48
  %NamesCount.i = getelementptr inbounds i8, ptr %this, i64 192
  %1 = load i64, ptr %NamesCount.i, align 8
  %cmp.not.i = icmp ult i64 %sub.i, %1
  br i1 %cmp.not.i, label %if.end.i, label %if.then.i

if.then.i:                                        ; preds = %if.then
  %Error.i = getelementptr inbounds i8, ptr %this, i64 8
  store i8 1, ptr %Error.i, align 8
  br label %return

if.end.i:                                         ; preds = %if.then
  %add.ptr.i.i = getelementptr inbounds i8, ptr %agg.tmp.sroa.0.0.copyload, i64 1
  store ptr %add.ptr.i.i, ptr %MangledName, align 8
  %Names.i = getelementptr inbounds i8, ptr %this, i64 112
  %arrayidx.i = getelementptr inbounds [10 x ptr], ptr %Names.i, i64 0, i64 %sub.i
  %2 = load ptr, ptr %arrayidx.i, align 8
  br label %return

if.end:                                           ; preds = %entry, %_ZL15startsWithDigit10StringView.exit
  %sub.ptr.lhs.cast.i2.i = ptrtoint ptr %agg.tmp.sroa.2.0.copyload to i64
  %sub.ptr.rhs.cast.i3.i = ptrtoint ptr %agg.tmp.sroa.0.0.copyload to i64
  %sub.ptr.sub.i4.i = sub i64 %sub.ptr.lhs.cast.i2.i, %sub.ptr.rhs.cast.i3.i
  %cmp.i = icmp ult i64 %sub.ptr.sub.i4.i, 2
  br i1 %cmp.i, label %if.end7, label %_ZNK10StringView10startsWithES_.exit

_ZNK10StringView10startsWithES_.exit:             ; preds = %if.end
  %bcmp.i.i.i.i.i = tail call i32 @bcmp(ptr noundef nonnull dereferenceable(2) @.str.40, ptr noundef nonnull dereferenceable(2) %agg.tmp.sroa.0.0.copyload, i64 2)
  %tobool1.not.i.i.i.i.i = icmp eq i32 %bcmp.i.i.i.i.i, 0
  br i1 %tobool1.not.i.i.i.i.i, label %if.then5, label %if.end7

if.then5:                                         ; preds = %_ZNK10StringView10startsWithES_.exit
  %call6 = tail call fastcc noundef ptr @_ZN12_GLOBAL__N_19Demangler33demangleTemplateInstantiationNameER10StringView19NameBackrefBehavior(ptr noundef nonnull align 8 dereferenceable(200) %this, ptr noundef nonnull align 8 dereferenceable(16) %MangledName, i8 noundef zeroext 1)
  br label %return

if.end7:                                          ; preds = %if.end, %_ZNK10StringView10startsWithES_.exit
  %call8 = tail call fastcc noundef ptr @_ZN12_GLOBAL__N_19Demangler18demangleSimpleNameER10StringViewb(ptr noundef nonnull align 8 dereferenceable(200) %this, ptr noundef nonnull align 8 dereferenceable(16) %MangledName)
  br label %return

return:                                           ; preds = %if.end.i, %if.then.i, %if.end7, %if.then5
  %retval.0 = phi ptr [ %call6, %if.then5 ], [ %call8, %if.end7 ], [ null, %if.then.i ], [ %2, %if.end.i ]
  ret ptr %retval.0
}